; Function Attrs: mustprogress uwtable
define hidden noundef zeroext i1 @_ZNK4cvc58internal3smt11SetDefaults21incompatibleWithSygusERKNS0_7OptionsERSo(ptr nocapture noundef nonnull readnone align 8 dereferenceable(17) %this, ptr nocapture noundef nonnull readonly align 8 dereferenceable(392) %opts, ptr noundef nonnull align 8 dereferenceable(8) %reason) local_unnamed_addr #3 align 2 {
entry:
  %smt.i = getelementptr inbounds i8, ptr %opts, i64 352
  %0 = load ptr, ptr %smt.i, align 8
  %solveBVAsInt.i = getelementptr inbounds i8, ptr %0, i64 140
  %1 = load i32, ptr %solveBVAsInt.i, align 4
  %cmp.not.i = icmp eq i32 %1, 0
  br i1 %cmp.not.i, label %if.end.i, label %return.sink.split

if.end.i:                                         ; preds = %entry
  %solveIntAsBV.i = getelementptr inbounds i8, ptr %0, i64 152
  %2 = load i64, ptr %solveIntAsBV.i, align 8
  %cmp3.not.i = icmp eq i64 %2, 0
  br i1 %cmp3.not.i, label %if.end6.i, label %return.sink.split

if.end6.i:                                        ; preds = %if.end.i
  %solveRealAsInt.i = getelementptr inbounds i8, ptr %0, i64 161
  %3 = load i8, ptr %solveRealAsInt.i, align 1
  %4 = and i8 %3, 1
  %tobool.not.i = icmp eq i8 %4, 0
  br i1 %tobool.not.i, label %if.end, label %return.sink.split

if.end:                                           ; preds = %if.end6.i
  %deepRestartMode = getelementptr inbounds i8, ptr %0, i64 32
  %5 = load i32, ptr %deepRestartMode, align 8
  %cmp.not = icmp eq i32 %5, 0
  br i1 %cmp.not, label %if.end4, label %return.sink.split

if.end4:                                          ; preds = %if.end
  %quantifiers = getelementptr inbounds i8, ptr %opts, i64 328
  %6 = load ptr, ptr %quantifiers, align 8
  %globalNegate = getelementptr inbounds i8, ptr %6, i64 187
  %7 = load i8, ptr %globalNegate, align 1
  %8 = and i8 %7, 1
  %tobool.not = icmp eq i8 %8, 0
  br i1 %tobool.not, label %return, label %return.sink.split

return.sink.split:                                ; preds = %if.end4, %if.end, %if.end6.i, %if.end.i, %entry
  %.str.118.sink.i.sink = phi ptr [ @.str.116, %entry ], [ @.str.117, %if.end.i ], [ @.str.118, %if.end6.i ], [ @.str.126, %if.end ], [ @.str.151, %if.end4 ]
  %call9.i = tail call noundef nonnull align 8 dereferenceable(8) ptr @_ZStlsISt11char_traitsIcEERSt13basic_ostreamIcT_ES5_PKc(ptr noundef nonnull align 8 dereferenceable(8) %reason, ptr noundef nonnull %.str.118.sink.i.sink)
  br label %return

return:                                           ; preds = %return.sink.split, %if.end4
  %retval.0 = phi i1 [ false, %if.end4 ], [ true, %return.sink.split ]
  ret i1 %retval.0
}